target datalayout = "e-m:e-p270:32:32-p271:32:32-p272:64:64-i64:64-i128:128-f80:128-n8:16:32:64-S128"
target triple = "x86_64-pc-linux-gnu"

; Function Attrs: nounwind uwtable
define internal i32 @decode_tag_internal(ptr noundef %0, ptr noundef %1, i32 noundef %2) #0 {
  %4 = alloca i32, align 4
  %5 = alloca ptr, align 8
  %6 = alloca ptr, align 8
  %7 = alloca i32, align 4
  %8 = alloca i32, align 4
  %9 = alloca i64, align 8
  %10 = alloca ptr, align 8
  %11 = alloca i64, align 8
  %12 = alloca i32, align 4
  %13 = alloca i32, align 4
  %14 = alloca i32, align 4
  %15 = alloca i8, align 1
  store ptr %0, ptr %5, align 8
  store ptr %1, ptr %6, align 8
  store i32 %2, ptr %7, align 4
  call void @llvm.lifetime.start.p0(i64 4, ptr %8) #6
  store i32 0, ptr %8, align 4
  call void @llvm.lifetime.start.p0(i64 8, ptr %9) #6
  %16 = load ptr, ptr %6, align 8
  %17 = call i64 @evbuffer_get_length(ptr noundef %16)
  store i64 %17, ptr %9, align 8
  call void @llvm.lifetime.start.p0(i64 8, ptr %10) #6
  call void @llvm.lifetime.start.p0(i64 8, ptr %11) #6
  store i64 0, ptr %11, align 8
  call void @llvm.lifetime.start.p0(i64 4, ptr %12) #6
  store i32 0, ptr %12, align 4
  call void @llvm.lifetime.start.p0(i64 4, ptr %13) #6
  store i32 0, ptr %13, align 4
  %18 = load ptr, ptr %6, align 8
  %19 = load i64, ptr %9, align 8
  %20 = icmp ult i64 %19, 5
  br i1 %20, label %21, label %23

21:                                               ; preds = %3
  %22 = load i64, ptr %9, align 8
  br label %24

23:                                               ; preds = %3
  br label %24

24:                                               ; preds = %23, %21
  %25 = phi i64 [ %22, %21 ], [ 5, %23 ]
  %26 = call ptr @evbuffer_pullup(ptr noundef %18, i64 noundef %25)
  store ptr %26, ptr %10, align 8
  %27 = load ptr, ptr %10, align 8
  %28 = icmp ne ptr %27, null
  br i1 %28, label %30, label %29

29:                                               ; preds = %24
  store i32 -1, ptr %4, align 4
  store i32 1, ptr %14, align 4
  br label %98

30:                                               ; preds = %24
  br label %31

31:                                               ; preds = %71, %30
  %32 = load i64, ptr %11, align 8
  %33 = add i64 %32, 1
  store i64 %33, ptr %11, align 8
  %34 = load i64, ptr %9, align 8
  %35 = icmp ult i64 %32, %34
  br i1 %35, label %36, label %72

36:                                               ; preds = %31
  call void @llvm.lifetime.start.p0(i64 1, ptr %15) #6
  %37 = load ptr, ptr %10, align 8
  %38 = getelementptr inbounds nuw i8, ptr %37, i32 1
  store ptr %38, ptr %10, align 8
  %39 = load i8, ptr %37, align 1
  store i8 %39, ptr %15, align 1
  %40 = load i32, ptr %12, align 4
  %41 = icmp sge i32 %40, 28
  br i1 %41, label %42, label %53

42:                                               ; preds = %36
  %43 = load i32, ptr %12, align 4
  %44 = icmp sgt i32 %43, 28
  br i1 %44, label %45, label %46

45:                                               ; preds = %42
  store i32 -1, ptr %4, align 4
  store i32 1, ptr %14, align 4
  br label %69

46:                                               ; preds = %42
  %47 = load i8, ptr %15, align 1
  %48 = zext i8 %47 to i32
  %49 = and i32 %48, 127
  %50 = icmp sgt i32 %49, 15
  br i1 %50, label %51, label %52

51:                                               ; preds = %46
  store i32 -1, ptr %4, align 4
  store i32 1, ptr %14, align 4
  br label %69

52:                                               ; preds = %46
  br label %53

53:                                               ; preds = %52, %36
  %54 = load i8, ptr %15, align 1
  %55 = zext i8 %54 to i32
  %56 = and i32 %55, 127
  %57 = load i32, ptr %12, align 4
  %58 = shl i32 %56, %57
  %59 = load i32, ptr %8, align 4
  %60 = or i32 %59, %58
  store i32 %60, ptr %8, align 4
  %61 = load i32, ptr %12, align 4
  %62 = add nsw i32 %61, 7
  store i32 %62, ptr %12, align 4
  %63 = load i8, ptr %15, align 1
  %64 = zext i8 %63 to i32
  %65 = and i32 %64, 128
  %66 = icmp ne i32 %65, 0
  br i1 %66, label %68, label %67

67:                                               ; preds = %53
  store i32 1, ptr %13, align 4
  store i32 3, ptr %14, align 4
  br label %69

68:                                               ; preds = %53
  store i32 0, ptr %14, align 4
  br label %69

69:                                               ; preds = %68, %67, %51, %45
  call void @llvm.lifetime.end.p0(i64 1, ptr %15) #6
  %70 = load i32, ptr %14, align 4
  switch i32 %70, label %98 [
    i32 0, label %71
    i32 3, label %72
  ]

71:                                               ; preds = %69
  br label %31, !llvm.loop !7

72:                                               ; preds = %69, %31
  %73 = load i32, ptr %13, align 4
  %74 = icmp ne i32 %73, 0
  br i1 %74, label %76, label %75

75:                                               ; preds = %72
  store i32 -1, ptr %4, align 4
  store i32 1, ptr %14, align 4
  br label %98

76:                                               ; preds = %72
  %77 = load i32, ptr %7, align 4
  %78 = icmp ne i32 %77, 0
  br i1 %78, label %79, label %83

79:                                               ; preds = %76
  %80 = load ptr, ptr %6, align 8
  %81 = load i64, ptr %11, align 8
  %82 = call i32 @evbuffer_drain(ptr noundef %80, i64 noundef %81)
  br label %83

83:                                               ; preds = %79, %76
  %84 = load ptr, ptr %5, align 8
  %85 = icmp ne ptr %84, null
  br i1 %85, label %86, label %89

86:                                               ; preds = %83
  %87 = load i32, ptr %8, align 4
  %88 = load ptr, ptr %5, align 8
  store i32 %87, ptr %88, align 4
  br label %89

89:                                               ; preds = %86, %83
  %90 = load i64, ptr %11, align 8
  %91 = icmp ugt i64 %90, 2147483647
  br i1 %91, label %92, label %93

92:                                               ; preds = %89
  br label %96

93:                                               ; preds = %89
  %94 = load i64, ptr %11, align 8
  %95 = trunc i64 %94 to i32
  br label %96

96:                                               ; preds = %93, %92
  %97 = phi i32 [ 2147483647, %92 ], [ %95, %93 ]
  store i32 %97, ptr %4, align 4
  store i32 1, ptr %14, align 4
  br label %98

98:                                               ; preds = %96, %75, %69, %29
  call void @llvm.lifetime.end.p0(i64 4, ptr %13) #6
  call void @llvm.lifetime.end.p0(i64 4, ptr %12) #6
  call void @llvm.lifetime.end.p0(i64 8, ptr %11) #6
  call void @llvm.lifetime.end.p0(i64 8, ptr %10) #6
  call void @llvm.lifetime.end.p0(i64 8, ptr %9) #6
  call void @llvm.lifetime.end.p0(i64 4, ptr %8) #6
  %99 = load i32, ptr %4, align 4
  ret i32 %99
}

; Function Attrs: nounwind uwtable
define i32 @evtag_unmarshal_header(ptr noundef %0, ptr noundef %1) #0 {
  %3 = alloca i32, align 4
  %4 = alloca ptr, align 8
  %5 = alloca ptr, align 8
  %6 = alloca i32, align 4
  %7 = alloca i32, align 4
  store ptr %0, ptr %4, align 8
  store ptr %1, ptr %5, align 8
  call void @llvm.lifetime.start.p0(i64 4, ptr %6) #6
  %8 = load ptr, ptr %5, align 8
  %9 = load ptr, ptr %4, align 8
  %10 = call i32 @decode_tag_internal(ptr noundef %8, ptr noundef %9, i32 noundef 1)
  %11 = icmp eq i32 %10, -1
  br i1 %11, label %12, label %13

12:                                               ; preds = %2
  store i32 -1, ptr %3, align 4
  store i32 1, ptr %7, align 4
  br label %27

13:                                               ; preds = %2
  %14 = load ptr, ptr %4, align 8
  %15 = call i32 @evtag_decode_int(ptr noundef %6, ptr noundef %14)
  %16 = icmp eq i32 %15, -1
  br i1 %16, label %17, label %18

17:                                               ; preds = %13
  store i32 -1, ptr %3, align 4
  store i32 1, ptr %7, align 4
  br label %27

18:                                               ; preds = %13
  %19 = load ptr, ptr %4, align 8
  %20 = call i64 @evbuffer_get_length(ptr noundef %19)
  %21 = load i32, ptr %6, align 4
  %22 = zext i32 %21 to i64
  %23 = icmp ult i64 %20, %22
  br i1 %23, label %24, label %25

24:                                               ; preds = %18
  store i32 -1, ptr %3, align 4
  store i32 1, ptr %7, align 4
  br label %27

25:                                               ; preds = %18
  %26 = load i32, ptr %6, align 4
  store i32 %26, ptr %3, align 4
  store i32 1, ptr %7, align 4
  br label %27

27:                                               ; preds = %25, %24, %17, %12
  call void @llvm.lifetime.end.p0(i64 4, ptr %6) #6
  %28 = load i32, ptr %3, align 4
  ret i32 %28
}