; Function Attrs: nounwind uwtable
define i32 @evtag_unmarshal_header(ptr noundef %0, ptr noundef writeonly captures(address_is_null) %1) local_unnamed_addr #1 {
  %3 = alloca i32, align 4
  call void @llvm.lifetime.start.p0(i64 4, ptr nonnull %3) #7
  %4 = tail call i64 @evbuffer_get_length(ptr noundef %0) #7
  %5 = tail call i64 @llvm.umin.i64(i64 %4, i64 5)
  %6 = tail call ptr @evbuffer_pullup(ptr noundef %0, i64 noundef %5) #7
  %.not.i = icmp eq ptr %6, null
  br i1 %.not.i, label %decode_tag_internal.exit.thread, label %.preheader.i

.preheader.i:                                     ; preds = %2, %14
  %.034.i = phi i32 [ %18, %14 ], [ 0, %2 ]
  %.033.i = phi ptr [ %9, %14 ], [ %6, %2 ]
  %.032.i = phi i64 [ %7, %14 ], [ 0, %2 ]
  %.030.i = phi i32 [ %19, %14 ], [ 0, %2 ]
  %7 = add i64 %.032.i, 1
  %exitcond.not.i = icmp eq i64 %.032.i, %4
  br i1 %exitcond.not.i, label %decode_tag_internal.exit.thread, label %8

8:                                                ; preds = %.preheader.i
  %9 = getelementptr inbounds nuw i8, ptr %.033.i, i64 1
  %10 = load i8, ptr %.033.i, align 1
  %11 = icmp samesign ugt i32 %.030.i, 27
  br i1 %11, label %12, label %14

12:                                               ; preds = %8
  %.not39.i = icmp eq i32 %.030.i, 28
  %13 = and i8 %10, 112
  %.not40.i = icmp eq i8 %13, 0
  %or.cond.i = select i1 %.not39.i, i1 %.not40.i, i1 false
  br i1 %or.cond.i, label %14, label %decode_tag_internal.exit.thread

14:                                               ; preds = %12, %8
  %15 = and i8 %10, 127
  %16 = zext nneg i8 %15 to i32
  %17 = shl i32 %16, %.030.i
  %18 = or i32 %17, %.034.i
  %19 = add nuw nsw i32 %.030.i, 7
  %.not41.i = icmp sgt i8 %10, -1
  br i1 %.not41.i, label %.thread49.i, label %.preheader.i

.thread49.i:                                      ; preds = %14
  %.not54.le.i = icmp ult i64 %.032.i, %4
  br i1 %.not54.le.i, label %20, label %decode_tag_internal.exit.thread

20:                                               ; preds = %.thread49.i
  %21 = tail call i32 @evbuffer_drain(ptr noundef %0, i64 noundef %7) #7
  %.not44.i = icmp eq ptr %1, null
  br i1 %.not44.i, label %decode_tag_internal.exit, label %22

22:                                               ; preds = %20
  store i32 %18, ptr %1, align 4
  br label %decode_tag_internal.exit

decode_tag_internal.exit:                         ; preds = %20, %22
  %23 = call i32 @evtag_decode_int(ptr noundef nonnull %3, ptr noundef %0)
  %24 = icmp eq i32 %23, -1
  br i1 %24, label %decode_tag_internal.exit.thread, label %25

25:                                               ; preds = %decode_tag_internal.exit
  %26 = tail call i64 @evbuffer_get_length(ptr noundef %0) #7
  %27 = load i32, ptr %3, align 4
  %28 = zext i32 %27 to i64
  %29 = icmp ult i64 %26, %28
  %. = select i1 %29, i32 -1, i32 %27
  br label %decode_tag_internal.exit.thread

decode_tag_internal.exit.thread:                  ; preds = %.preheader.i, %12, %.thread49.i, %2, %25, %decode_tag_internal.exit
  %.0 = phi i32 [ -1, %decode_tag_internal.exit ], [ %., %25 ], [ -1, %2 ], [ -1, %.thread49.i ], [ -1, %12 ], [ -1, %.preheader.i ]
  call void @llvm.lifetime.end.p0(i64 4, ptr nonnull %3) #7
  ret i32 %.0
}